target datalayout = "e-m:e-p270:32:32-p271:32:32-p272:64:64-i64:64-i128:128-f80:128-n8:16:32:64-S128"
target triple = "x86_64-pc-linux-gnu"

%struct.png_image = type { ptr, i32, i32, i32, i32, i32, i32, i32, [64 x i8] }
%struct.png_image_read_control = type { ptr, ptr, i32, ptr, ptr, ptr, ptr, i64, i32, i32, i32 }

@.str.21 = private unnamed_addr constant [47 x i8] c"png_image_finish_read[color-map]: no color-map\00", align 1
@.str.22 = private unnamed_addr constant [39 x i8] c"png_image_finish_read: image too large\00", align 1
@.str.23 = private unnamed_addr constant [40 x i8] c"png_image_finish_read: invalid argument\00", align 1
@.str.24 = private unnamed_addr constant [44 x i8] c"png_image_finish_read: row_stride too large\00", align 1
@.str.25 = private unnamed_addr constant [49 x i8] c"png_image_finish_read: damaged PNG_IMAGE_VERSION\00", align 1

; Function Attrs: nounwind uwtable
define i32 @png_image_finish_read(ptr noundef %0, ptr noundef %1, ptr noundef %2, i32 noundef %3, ptr noundef %4) #0 {
  %6 = alloca i32, align 4
  %7 = alloca ptr, align 8
  %8 = alloca ptr, align 8
  %9 = alloca ptr, align 8
  %10 = alloca i32, align 4
  %11 = alloca ptr, align 8
  %12 = alloca i32, align 4
  %13 = alloca i32, align 4
  %14 = alloca i32, align 4
  %15 = alloca i32, align 4
  %16 = alloca %struct.png_image_read_control, align 8
  store ptr %0, ptr %7, align 8
  store ptr %1, ptr %8, align 8
  store ptr %2, ptr %9, align 8
  store i32 %3, ptr %10, align 4
  store ptr %4, ptr %11, align 8
  %17 = load ptr, ptr %7, align 8
  %18 = icmp ne ptr %17, null
  br i1 %18, label %19, label %158

19:                                               ; preds = %5
  %20 = load ptr, ptr %7, align 8
  %21 = getelementptr inbounds %struct.png_image, ptr %20, i32 0, i32 1
  %22 = load i32, ptr %21, align 8
  %23 = icmp eq i32 %22, 1
  br i1 %23, label %24, label %158

24:                                               ; preds = %19
  %25 = load ptr, ptr %7, align 8
  %26 = getelementptr inbounds %struct.png_image, ptr %25, i32 0, i32 4
  %27 = load i32, ptr %26, align 4
  %28 = and i32 %27, 8
  %29 = icmp ne i32 %28, 0
  br i1 %29, label %30, label %31

30:                                               ; preds = %24
  br label %37

31:                                               ; preds = %24
  %32 = load ptr, ptr %7, align 8
  %33 = getelementptr inbounds %struct.png_image, ptr %32, i32 0, i32 4
  %34 = load i32, ptr %33, align 4
  %35 = and i32 %34, 3
  %36 = add i32 %35, 1
  br label %37

37:                                               ; preds = %31, %30
  %38 = phi i32 [ 1, %30 ], [ %36, %31 ]
  store i32 %38, ptr %12, align 4
  %39 = load ptr, ptr %7, align 8
  %40 = getelementptr inbounds %struct.png_image, ptr %39, i32 0, i32 2
  %41 = load i32, ptr %40, align 4
  %42 = load i32, ptr %12, align 4
  %43 = udiv i32 2147483647, %42
  %44 = icmp ule i32 %41, %43
  br i1 %44, label %45, label %155

45:                                               ; preds = %37
  %46 = load ptr, ptr %7, align 8
  %47 = getelementptr inbounds %struct.png_image, ptr %46, i32 0, i32 2
  %48 = load i32, ptr %47, align 4
  %49 = load i32, ptr %12, align 4
  %50 = mul i32 %48, %49
  store i32 %50, ptr %14, align 4
  %51 = load i32, ptr %10, align 4
  %52 = icmp eq i32 %51, 0
  br i1 %52, label %53, label %55

53:                                               ; preds = %45
  %54 = load i32, ptr %14, align 4
  store i32 %54, ptr %10, align 4
  br label %55

55:                                               ; preds = %53, %45
  %56 = load i32, ptr %10, align 4
  %57 = icmp slt i32 %56, 0
  br i1 %57, label %58, label %61

58:                                               ; preds = %55
  %59 = load i32, ptr %10, align 4
  %60 = sub nsw i32 0, %59
  store i32 %60, ptr %13, align 4
  br label %63

61:                                               ; preds = %55
  %62 = load i32, ptr %10, align 4
  store i32 %62, ptr %13, align 4
  br label %63

63:                                               ; preds = %61, %58
  %64 = load ptr, ptr %7, align 8
  %65 = getelementptr inbounds %struct.png_image, ptr %64, i32 0, i32 0
  %66 = load ptr, ptr %65, align 8
  %67 = icmp ne ptr %66, null
  br i1 %67, label %68, label %152

68:                                               ; preds = %63
  %69 = load ptr, ptr %9, align 8
  %70 = icmp ne ptr %69, null
  br i1 %70, label %71, label %152

71:                                               ; preds = %68
  %72 = load i32, ptr %13, align 4
  %73 = load i32, ptr %14, align 4
  %74 = icmp uge i32 %72, %73
  br i1 %74, label %75, label %152

75:                                               ; preds = %71
  %76 = load ptr, ptr %7, align 8
  %77 = getelementptr inbounds %struct.png_image, ptr %76, i32 0, i32 3
  %78 = load i32, ptr %77, align 8
  %79 = load ptr, ptr %7, align 8
  %80 = getelementptr inbounds %struct.png_image, ptr %79, i32 0, i32 4
  %81 = load i32, ptr %80, align 4
  %82 = and i32 %81, 8
  %83 = icmp ne i32 %82, 0
  br i1 %83, label %84, label %85

84:                                               ; preds = %75
  br label %92

85:                                               ; preds = %75
  %86 = load ptr, ptr %7, align 8
  %87 = getelementptr inbounds %struct.png_image, ptr %86, i32 0, i32 4
  %88 = load i32, ptr %87, align 4
  %89 = and i32 %88, 4
  %90 = lshr i32 %89, 2
  %91 = add i32 %90, 1
  br label %92

92:                                               ; preds = %85, %84
  %93 = phi i32 [ 1, %84 ], [ %91, %85 ]
  %94 = udiv i32 -1, %93
  %95 = load i32, ptr %13, align 4
  %96 = udiv i32 %94, %95
  %97 = icmp ule i32 %78, %96
  br i1 %97, label %98, label %149

98:                                               ; preds = %92
  %99 = load ptr, ptr %7, align 8
  %100 = getelementptr inbounds %struct.png_image, ptr %99, i32 0, i32 4
  %101 = load i32, ptr %100, align 4
  %102 = and i32 %101, 8
  %103 = icmp eq i32 %102, 0
  br i1 %103, label %112, label %104

104:                                              ; preds = %98
  %105 = load ptr, ptr %7, align 8
  %106 = getelementptr inbounds %struct.png_image, ptr %105, i32 0, i32 6
  %107 = load i32, ptr %106, align 4
  %108 = icmp ugt i32 %107, 0
  br i1 %108, label %109, label %146

109:                                              ; preds = %104
  %110 = load ptr, ptr %11, align 8
  %111 = icmp ne ptr %110, null
  br i1 %111, label %112, label %146

112:                                              ; preds = %109, %98
  call void @llvm.memset.p0.i64(ptr align 8 %16, i8 0, i64 80, i1 false)
  %113 = load ptr, ptr %7, align 8
  %114 = getelementptr inbounds %struct.png_image_read_control, ptr %16, i32 0, i32 0
  store ptr %113, ptr %114, align 8
  %115 = load ptr, ptr %9, align 8
  %116 = getelementptr inbounds %struct.png_image_read_control, ptr %16, i32 0, i32 1
  store ptr %115, ptr %116, align 8
  %117 = load i32, ptr %10, align 4
  %118 = getelementptr inbounds %struct.png_image_read_control, ptr %16, i32 0, i32 2
  store i32 %117, ptr %118, align 8
  %119 = load ptr, ptr %11, align 8
  %120 = getelementptr inbounds %struct.png_image_read_control, ptr %16, i32 0, i32 3
  store ptr %119, ptr %120, align 8
  %121 = load ptr, ptr %8, align 8
  %122 = getelementptr inbounds %struct.png_image_read_control, ptr %16, i32 0, i32 4
  store ptr %121, ptr %122, align 8
  %123 = getelementptr inbounds %struct.png_image_read_control, ptr %16, i32 0, i32 5
  store ptr null, ptr %123, align 8
  %124 = load ptr, ptr %7, align 8
  %125 = getelementptr inbounds %struct.png_image, ptr %124, i32 0, i32 4
  %126 = load i32, ptr %125, align 4
  %127 = and i32 %126, 8
  %128 = icmp ne i32 %127, 0
  br i1 %128, label %129, label %140

129:                                              ; preds = %112
  %130 = load ptr, ptr %7, align 8
  %131 = call i32 @png_safe_execute(ptr noundef %130, ptr noundef @png_image_read_colormap, ptr noundef %16)
  %132 = icmp ne i32 %131, 0
  br i1 %132, label %133, label %137

133:                                              ; preds = %129
  %134 = load ptr, ptr %7, align 8
  %135 = call i32 @png_safe_execute(ptr noundef %134, ptr noundef @png_image_read_colormapped, ptr noundef %16)
  %136 = icmp ne i32 %135, 0
  br label %137

137:                                              ; preds = %133, %129
  %138 = phi i1 [ false, %129 ], [ %136, %133 ]
  %139 = zext i1 %138 to i32
  store i32 %139, ptr %15, align 4
  br label %143

140:                                              ; preds = %112
  %141 = load ptr, ptr %7, align 8
  %142 = call i32 @png_safe_execute(ptr noundef %141, ptr noundef @png_image_read_direct, ptr noundef %16)
  store i32 %142, ptr %15, align 4
  br label %143

143:                                              ; preds = %140, %137
  %144 = load ptr, ptr %7, align 8
  call void @png_image_free(ptr noundef %144)
  %145 = load i32, ptr %15, align 4
  store i32 %145, ptr %6, align 4
  br label %166

146:                                              ; preds = %109, %104
  %147 = load ptr, ptr %7, align 8
  %148 = call i32 @png_image_error(ptr noundef %147, ptr noundef @.str.21)
  store i32 %148, ptr %6, align 4
  br label %166

149:                                              ; preds = %92
  %150 = load ptr, ptr %7, align 8
  %151 = call i32 @png_image_error(ptr noundef %150, ptr noundef @.str.22)
  store i32 %151, ptr %6, align 4
  br label %166

152:                                              ; preds = %71, %68, %63
  %153 = load ptr, ptr %7, align 8
  %154 = call i32 @png_image_error(ptr noundef %153, ptr noundef @.str.23)
  store i32 %154, ptr %6, align 4
  br label %166

155:                                              ; preds = %37
  %156 = load ptr, ptr %7, align 8
  %157 = call i32 @png_image_error(ptr noundef %156, ptr noundef @.str.24)
  store i32 %157, ptr %6, align 4
  br label %166

158:                                              ; preds = %19, %5
  %159 = load ptr, ptr %7, align 8
  %160 = icmp ne ptr %159, null
  br i1 %160, label %161, label %164

161:                                              ; preds = %158
  %162 = load ptr, ptr %7, align 8
  %163 = call i32 @png_image_error(ptr noundef %162, ptr noundef @.str.25)
  store i32 %163, ptr %6, align 4
  br label %166

164:                                              ; preds = %158
  br label %165

165:                                              ; preds = %164
  store i32 0, ptr %6, align 4
  br label %166

166:                                              ; preds = %165, %161, %155, %152, %149, %146, %143
  %167 = load i32, ptr %6, align 4
  ret i32 %167
}