; Function Attrs: nounwind uwtable
define i32 @png_image_finish_read(ptr noundef %0, ptr noundef %1, ptr noundef %2, i32 noundef %3, ptr noundef %4) local_unnamed_addr #0 {
  %6 = alloca %struct.png_image_read_control, align 8
  %.not = icmp eq ptr %0, null
  br i1 %.not, label %.critedge, label %7

7:                                                ; preds = %5
  %8 = getelementptr inbounds i8, ptr %0, i64 8
  %9 = load i32, ptr %8, align 8
  %10 = icmp eq i32 %9, 1
  br i1 %10, label %11, label %65

11:                                               ; preds = %7
  %12 = getelementptr inbounds i8, ptr %0, i64 20
  %13 = load i32, ptr %12, align 4
  %14 = and i32 %13, 8
  %.not51 = icmp eq i32 %14, 0
  %15 = and i32 %13, 3
  %16 = add nuw nsw i32 %15, 1
  %17 = select i1 %.not51, i32 %16, i32 1
  %18 = getelementptr inbounds i8, ptr %0, i64 12
  %19 = load i32, ptr %18, align 4
  %20 = udiv i32 2147483647, %17
  %.not52 = icmp ugt i32 %19, %20
  br i1 %.not52, label %63, label %21

21:                                               ; preds = %11
  %22 = mul i32 %17, %19
  %23 = icmp eq i32 %3, 0
  %spec.select = select i1 %23, i32 %22, i32 %3
  %.045 = tail call i32 @llvm.abs.i32(i32 %spec.select, i1 true)
  %24 = load ptr, ptr %0, align 8
  %25 = icmp eq ptr %24, null
  %26 = icmp eq ptr %2, null
  %or.cond.not61 = or i1 %26, %25
  %.not53 = icmp ult i32 %.045, %22
  %or.cond58 = select i1 %or.cond.not61, i1 true, i1 %.not53
  br i1 %or.cond58, label %61, label %27

27:                                               ; preds = %21
  %28 = getelementptr inbounds i8, ptr %0, i64 16
  %29 = load i32, ptr %28, align 8
  %30 = lshr i32 %13, 2
  %31 = and i32 %30, 1
  %32 = add nuw nsw i32 %31, 1
  %33 = select i1 %.not51, i32 %32, i32 1
  %34 = udiv i32 -1, %33
  %35 = udiv i32 %34, %.045
  %.not55 = icmp ugt i32 %29, %35
  br i1 %.not55, label %59, label %36

36:                                               ; preds = %27
  br i1 %.not51, label %42, label %37

37:                                               ; preds = %36
  %38 = getelementptr inbounds i8, ptr %0, i64 28
  %39 = load i32, ptr %38, align 4
  %40 = icmp ne i32 %39, 0
  %41 = icmp ne ptr %4, null
  %or.cond3 = and i1 %41, %40
  br i1 %or.cond3, label %42, label %57

42:                                               ; preds = %37, %36
  %43 = getelementptr inbounds i8, ptr %6, i64 16
  call void @llvm.memset.p0.i64(ptr noundef nonnull align 8 dereferenceable(80) %43, i8 0, i64 64, i1 false)
  store ptr %0, ptr %6, align 8
  %44 = getelementptr inbounds i8, ptr %6, i64 8
  store ptr %2, ptr %44, align 8
  %45 = getelementptr inbounds i8, ptr %6, i64 16
  store i32 %spec.select, ptr %45, align 8
  %46 = getelementptr inbounds i8, ptr %6, i64 24
  store ptr %4, ptr %46, align 8
  %47 = getelementptr inbounds i8, ptr %6, i64 32
  store ptr %1, ptr %47, align 8
  br i1 %.not51, label %54, label %48

48:                                               ; preds = %42
  %49 = call i32 @png_safe_execute(ptr noundef nonnull %0, ptr noundef nonnull @png_image_read_colormap, ptr noundef nonnull %6) #11
  %.not57 = icmp eq i32 %49, 0
  br i1 %.not57, label %56, label %50

50:                                               ; preds = %48
  %51 = call i32 @png_safe_execute(ptr noundef nonnull %0, ptr noundef nonnull @png_image_read_colormapped, ptr noundef nonnull %6) #11
  %52 = icmp ne i32 %51, 0
  %53 = zext i1 %52 to i32
  br label %56

54:                                               ; preds = %42
  %55 = call i32 @png_safe_execute(ptr noundef nonnull %0, ptr noundef nonnull @png_image_read_direct, ptr noundef nonnull %6) #11
  br label %56

56:                                               ; preds = %48, %50, %54
  %.0 = phi i32 [ %55, %54 ], [ 0, %48 ], [ %53, %50 ]
  call void @png_image_free(ptr noundef nonnull %0) #11
  br label %.critedge

57:                                               ; preds = %37
  %58 = tail call i32 @png_image_error(ptr noundef nonnull %0, ptr noundef nonnull @.str.21) #11
  br label %.critedge

59:                                               ; preds = %27
  %60 = tail call i32 @png_image_error(ptr noundef nonnull %0, ptr noundef nonnull @.str.22) #11
  br label %.critedge

61:                                               ; preds = %21
  %62 = tail call i32 @png_image_error(ptr noundef nonnull %0, ptr noundef nonnull @.str.23) #11
  br label %.critedge

63:                                               ; preds = %11
  %64 = tail call i32 @png_image_error(ptr noundef nonnull %0, ptr noundef nonnull @.str.24) #11
  br label %.critedge

65:                                               ; preds = %7
  %66 = tail call i32 @png_image_error(ptr noundef nonnull %0, ptr noundef nonnull @.str.25) #11
  br label %.critedge

.critedge:                                        ; preds = %5, %65, %63, %61, %59, %57, %56
  %.044 = phi i32 [ %.0, %56 ], [ %58, %57 ], [ %60, %59 ], [ %62, %61 ], [ %64, %63 ], [ %66, %65 ], [ 0, %5 ]
  ret i32 %.044
}